; Function Attrs: null_pointer_is_valid sspstrong uwtable
define internal fastcc void @decode_GIAS_SubmitStandingQueryRequest_get_time_next_execution(ptr noundef %0, ptr noundef %1, ptr noundef %2, ptr noundef %3, ptr noundef %4, ptr noundef readonly captures(none) %5, i1 noundef zeroext %6) unnamed_addr #0 {
  %8 = getelementptr inbounds nuw i8, ptr %5, i64 7
  %9 = load i8, ptr %8, align 1
  switch i8 %9, label %19 [
    i8 0, label %22
    i8 1, label %10
  ]

10:                                               ; preds = %7
  %11 = getelementptr inbounds nuw i8, ptr %5, i64 16
  %12 = load i32, ptr %11, align 8
  switch i32 %12, label %17 [
    i32 0, label %13
    i32 1, label %22
  ]

13:                                               ; preds = %10
  %14 = load i32, ptr %4, align 4
  %15 = load i32, ptr @ett_giop_struct, align 4
  %16 = tail call ptr @proto_tree_add_subtree(ptr noundef %2, ptr noundef %0, i32 noundef %14, i32 noundef -1, i32 noundef %15, ptr noundef null, ptr noundef nonnull @.str.840)
  tail call fastcc void @decode_UCO_AbsTime_st(ptr noundef %0, ptr noundef %16, ptr noundef %4, i1 noundef zeroext %6)
  br label %22

17:                                               ; preds = %10
  %18 = tail call ptr (ptr, ptr, ptr, ptr, ...) @expert_add_info_format(ptr noundef %1, ptr noundef %3, ptr noundef nonnull @ei_gias_unknown_exception, ptr noundef nonnull @.str.826, i32 noundef %12)
  br label %22

19:                                               ; preds = %7
  %20 = zext i8 %9 to i32
  %21 = tail call ptr (ptr, ptr, ptr, ptr, ...) @expert_add_info_format(ptr noundef %1, ptr noundef %3, ptr noundef nonnull @ei_gias_unknown_giop_msg, ptr noundef nonnull @.str.827, i32 noundef %20)
  br label %22

22:                                               ; preds = %10, %13, %17, %19, %7
  ret void
}